(dp1
S'failed'
p2
(lp3
S'7'
asS'source_names'
p4
(lp5
S'.'
asS'ids'
p6
(dp7
I1
(S'/home/marco/bin/plugins/MapFinds/test/test_init.py'
S'MapFinds.test.test_init'
p8
S'TestInit.test_read_init'
tp9
sI2
(S'/home/marco/bin/plugins/MapFinds/test/test_map_finds_dialog.py'
S'MapFinds.test.test_map_finds_dialog'
p10
S'MapFindsDialogTest.test_dialog_cancel'
tp11
sI3
(S'/home/marco/bin/plugins/MapFinds/test/test_map_finds_dialog.py'
g10
S'MapFindsDialogTest.test_dialog_ok'
tp12
sI4
(S'/home/marco/bin/plugins/MapFinds/test/test_qgis_environment.py'
S'MapFinds.test.test_qgis_environment'
p13
S'QGISTest.test_projection'
tp14
sI5
(S'/home/marco/bin/plugins/MapFinds/test/test_qgis_environment.py'
g13
S'QGISTest.test_qgis_environment'
tp15
sI6
(S'/home/marco/bin/plugins/MapFinds/test/test_resources.py'
S'MapFinds.test.test_resources'
p16
S'MapFindsDialogTest.test_icon_png'
tp17
sI7
(S'/home/marco/bin/plugins/MapFinds/test/test_translations.py'
S'MapFinds.test.test_translations'
p18
S'SafeTranslationsTest.test_qgis_translations'
tp19
ss.